target datalayout = "e-m:e-p270:32:32-p271:32:32-p272:64:64-i64:64-i128:128-f80:128-n8:16:32:64-S128"
target triple = "x86_64-pc-linux-gnu"

%struct.fstWriterContext = type { ptr, ptr, ptr, ptr, ptr, ptr, ptr, i64, ptr, ptr, ptr, i32, ptr, i32, i32, i32, i8, i64, i64, i32, i32, i64, i64, i32, i32, i32, i64, i32, double, ptr, ptr, i32, i64, i8, i8, i8, i8, i8, i64, i64, i64, i64, i64, i32, ptr, i32, i8, ptr, ptr, ptr, ptr, i32 }

@.str.11 = private unnamed_addr constant [1 x i8] zeroinitializer, align 1
@.str.13 = private unnamed_addr constant [5 x i8] c"%s%c\00", align 1

; Function Attrs: mustprogress uwtable
define internal noundef i64 @_ZL9fstFwritePKvmmP8_IO_FILE(ptr noundef %0, i64 noundef %1, i64 noundef %2, ptr noundef %3) #0 {
  %5 = alloca ptr, align 8
  %6 = alloca i64, align 8
  %7 = alloca i64, align 8
  %8 = alloca ptr, align 8
  store ptr %0, ptr %5, align 8, !tbaa !50
  store i64 %1, ptr %6, align 8, !tbaa !35
  store i64 %2, ptr %7, align 8, !tbaa !35
  store ptr %3, ptr %8, align 8, !tbaa !33
  %9 = load ptr, ptr %5, align 8, !tbaa !50
  %10 = load i64, ptr %6, align 8, !tbaa !35
  %11 = load i64, ptr %7, align 8, !tbaa !35
  %12 = load ptr, ptr %8, align 8, !tbaa !33
  %13 = call i64 @fwrite(ptr noundef %9, i64 noundef %10, i64 noundef %11, ptr noundef %12)
  ret i64 %13
}

; Function Attrs: mustprogress uwtable
define internal noundef i32 @_ZL15fstWriterVarintP8_IO_FILEm(ptr noundef %0, i64 noundef %1) #0 {
  %3 = alloca ptr, align 8
  %4 = alloca i64, align 8
  %5 = alloca i64, align 8
  %6 = alloca [10 x i8], align 1
  %7 = alloca ptr, align 8
  %8 = alloca i32, align 4
  store ptr %0, ptr %3, align 8, !tbaa !33
  store i64 %1, ptr %4, align 8, !tbaa !35
  call void @llvm.lifetime.start.p0(i64 8, ptr %5) #15
  call void @llvm.lifetime.start.p0(i64 10, ptr %6) #15
  call void @llvm.lifetime.start.p0(i64 8, ptr %7) #15
  %9 = getelementptr inbounds [10 x i8], ptr %6, i64 0, i64 0
  store ptr %9, ptr %7, align 8, !tbaa !6
  call void @llvm.lifetime.start.p0(i64 4, ptr %8) #15
  br label %10

10:                                               ; preds = %14, %2
  %11 = load i64, ptr %4, align 8, !tbaa !35
  %12 = lshr i64 %11, 7
  store i64 %12, ptr %5, align 8, !tbaa !35
  %13 = icmp ne i64 %12, 0
  br i1 %13, label %14, label %23

14:                                               ; preds = %10
  %15 = load i64, ptr %4, align 8, !tbaa !35
  %16 = trunc i64 %15 to i8
  %17 = zext i8 %16 to i32
  %18 = or i32 %17, 128
  %19 = trunc i32 %18 to i8
  %20 = load ptr, ptr %7, align 8, !tbaa !6
  %21 = getelementptr inbounds nuw i8, ptr %20, i32 1
  store ptr %21, ptr %7, align 8, !tbaa !6
  store i8 %19, ptr %20, align 1, !tbaa !34
  %22 = load i64, ptr %5, align 8, !tbaa !35
  store i64 %22, ptr %4, align 8, !tbaa !35
  br label %10, !llvm.loop !95

23:                                               ; preds = %10
  %24 = load i64, ptr %4, align 8, !tbaa !35
  %25 = trunc i64 %24 to i8
  %26 = load ptr, ptr %7, align 8, !tbaa !6
  %27 = getelementptr inbounds nuw i8, ptr %26, i32 1
  store ptr %27, ptr %7, align 8, !tbaa !6
  store i8 %25, ptr %26, align 1, !tbaa !34
  %28 = load ptr, ptr %7, align 8, !tbaa !6
  %29 = getelementptr inbounds [10 x i8], ptr %6, i64 0, i64 0
  %30 = ptrtoint ptr %28 to i64
  %31 = ptrtoint ptr %29 to i64
  %32 = sub i64 %30, %31
  %33 = trunc i64 %32 to i32
  store i32 %33, ptr %8, align 4, !tbaa !11
  %34 = getelementptr inbounds [10 x i8], ptr %6, i64 0, i64 0
  %35 = load i32, ptr %8, align 4, !tbaa !11
  %36 = sext i32 %35 to i64
  %37 = load ptr, ptr %3, align 8, !tbaa !33
  %38 = call noundef i64 @_ZL9fstFwritePKvmmP8_IO_FILE(ptr noundef %34, i64 noundef %36, i64 noundef 1, ptr noundef %37)
  %39 = load i32, ptr %8, align 4, !tbaa !11
  call void @llvm.lifetime.end.p0(i64 4, ptr %8) #15
  call void @llvm.lifetime.end.p0(i64 8, ptr %7) #15
  call void @llvm.lifetime.end.p0(i64 10, ptr %6) #15
  call void @llvm.lifetime.end.p0(i64 8, ptr %5) #15
  ret i32 %39
}

; Function Attrs: mustprogress uwtable
define void @fstWriterSetAttrBegin(ptr noundef %0, i32 noundef %1, i32 noundef %2, ptr noundef %3, i64 noundef %4) #0 {
  %6 = alloca ptr, align 8
  %7 = alloca i32, align 4
  %8 = alloca i32, align 4
  %9 = alloca ptr, align 8
  %10 = alloca i64, align 8
  %11 = alloca ptr, align 8
  store ptr %0, ptr %6, align 8, !tbaa !50
  store i32 %1, ptr %7, align 4, !tbaa !125
  store i32 %2, ptr %8, align 4, !tbaa !11
  store ptr %3, ptr %9, align 8, !tbaa !6
  store i64 %4, ptr %10, align 8, !tbaa !35
  call void @llvm.lifetime.start.p0(i64 8, ptr %11) #15
  %12 = load ptr, ptr %6, align 8, !tbaa !50
  store ptr %12, ptr %11, align 8, !tbaa !13
  %13 = load ptr, ptr %11, align 8, !tbaa !13
  %14 = icmp ne ptr %13, null
  br i1 %14, label %15, label %97

15:                                               ; preds = %5
  %16 = load ptr, ptr %11, align 8, !tbaa !13
  %17 = getelementptr inbounds nuw %struct.fstWriterContext, ptr %16, i32 0, i32 1
  %18 = load ptr, ptr %17, align 8, !tbaa !22
  %19 = call i32 @fputc(i32 noundef 252, ptr noundef %18)
  %20 = load i32, ptr %7, align 4, !tbaa !125
  %21 = icmp sgt i32 %20, 3
  br i1 %21, label %22, label %23

22:                                               ; preds = %15
  store i32 0, ptr %7, align 4, !tbaa !125
  store i32 8, ptr %8, align 4, !tbaa !11
  br label %23

23:                                               ; preds = %22, %15
  %24 = load i32, ptr %7, align 4, !tbaa !125
  %25 = load ptr, ptr %11, align 8, !tbaa !13
  %26 = getelementptr inbounds nuw %struct.fstWriterContext, ptr %25, i32 0, i32 1
  %27 = load ptr, ptr %26, align 8, !tbaa !22
  %28 = call i32 @fputc(i32 noundef %24, ptr noundef %27)
  %29 = load i32, ptr %7, align 4, !tbaa !125
  switch i32 %29, label %55 [
    i32 1, label %30
    i32 2, label %38
    i32 3, label %46
    i32 0, label %54
  ]

30:                                               ; preds = %23
  %31 = load i32, ptr %8, align 4, !tbaa !11
  %32 = icmp slt i32 %31, 0
  br i1 %32, label %36, label %33

33:                                               ; preds = %30
  %34 = load i32, ptr %8, align 4, !tbaa !11
  %35 = icmp sgt i32 %34, 3
  br i1 %35, label %36, label %37

36:                                               ; preds = %33, %30
  store i32 0, ptr %8, align 4, !tbaa !11
  br label %37

37:                                               ; preds = %36, %33
  br label %56

38:                                               ; preds = %23
  %39 = load i32, ptr %8, align 4, !tbaa !11
  %40 = icmp slt i32 %39, 0
  br i1 %40, label %44, label %41

41:                                               ; preds = %38
  %42 = load i32, ptr %8, align 4, !tbaa !11
  %43 = icmp sgt i32 %42, 15
  br i1 %43, label %44, label %45

44:                                               ; preds = %41, %38
  store i32 0, ptr %8, align 4, !tbaa !11
  br label %45

45:                                               ; preds = %44, %41
  br label %56

46:                                               ; preds = %23
  %47 = load i32, ptr %8, align 4, !tbaa !11
  %48 = icmp slt i32 %47, 0
  br i1 %48, label %52, label %49

49:                                               ; preds = %46
  %50 = load i32, ptr %8, align 4, !tbaa !11
  %51 = icmp sgt i32 %50, 3
  br i1 %51, label %52, label %53

52:                                               ; preds = %49, %46
  store i32 0, ptr %8, align 4, !tbaa !11
  br label %53

53:                                               ; preds = %52, %49
  br label %56

54:                                               ; preds = %23
  br label %55

55:                                               ; preds = %23, %54
  br label %56

56:                                               ; preds = %55, %53, %45, %37
  %57 = load i32, ptr %8, align 4, !tbaa !11
  %58 = load ptr, ptr %11, align 8, !tbaa !13
  %59 = getelementptr inbounds nuw %struct.fstWriterContext, ptr %58, i32 0, i32 1
  %60 = load ptr, ptr %59, align 8, !tbaa !22
  %61 = call i32 @fputc(i32 noundef %57, ptr noundef %60)
  %62 = load ptr, ptr %11, align 8, !tbaa !13
  %63 = getelementptr inbounds nuw %struct.fstWriterContext, ptr %62, i32 0, i32 1
  %64 = load ptr, ptr %63, align 8, !tbaa !22
  %65 = load ptr, ptr %9, align 8, !tbaa !6
  %66 = icmp ne ptr %65, null
  br i1 %66, label %67, label %69

67:                                               ; preds = %56
  %68 = load ptr, ptr %9, align 8, !tbaa !6
  br label %70

69:                                               ; preds = %56
  br label %70

70:                                               ; preds = %69, %67
  %71 = phi ptr [ %68, %67 ], [ @.str.11, %69 ]
  %72 = call i32 (ptr, ptr, ...) @fprintf(ptr noundef %64, ptr noundef @.str.13, ptr noundef %71, i32 noundef 0) #15
  %73 = load ptr, ptr %9, align 8, !tbaa !6
  %74 = icmp ne ptr %73, null
  br i1 %74, label %75, label %82

75:                                               ; preds = %70
  %76 = load ptr, ptr %9, align 8, !tbaa !6
  %77 = call i64 @strlen(ptr noundef %76) #17
  %78 = load ptr, ptr %11, align 8, !tbaa !13
  %79 = getelementptr inbounds nuw %struct.fstWriterContext, ptr %78, i32 0, i32 7
  %80 = load i64, ptr %79, align 8, !tbaa !69
  %81 = add i64 %80, %77
  store i64 %81, ptr %79, align 8, !tbaa !69
  br label %82

82:                                               ; preds = %75, %70
  %83 = load ptr, ptr %11, align 8, !tbaa !13
  %84 = getelementptr inbounds nuw %struct.fstWriterContext, ptr %83, i32 0, i32 7
  %85 = load i64, ptr %84, align 8, !tbaa !69
  %86 = add nsw i64 %85, 4
  store i64 %86, ptr %84, align 8, !tbaa !69
  %87 = load ptr, ptr %11, align 8, !tbaa !13
  %88 = getelementptr inbounds nuw %struct.fstWriterContext, ptr %87, i32 0, i32 1
  %89 = load ptr, ptr %88, align 8, !tbaa !22
  %90 = load i64, ptr %10, align 8, !tbaa !35
  %91 = call noundef i32 @_ZL15fstWriterVarintP8_IO_FILEm(ptr noundef %89, i64 noundef %90)
  %92 = sext i32 %91 to i64
  %93 = load ptr, ptr %11, align 8, !tbaa !13
  %94 = getelementptr inbounds nuw %struct.fstWriterContext, ptr %93, i32 0, i32 7
  %95 = load i64, ptr %94, align 8, !tbaa !69
  %96 = add nsw i64 %95, %92
  store i64 %96, ptr %94, align 8, !tbaa !69
  br label %97

97:                                               ; preds = %82, %5
  call void @llvm.lifetime.end.p0(i64 8, ptr %11) #15
  ret void
}