; Function Attrs: mustprogress nofree nounwind uwtable
define void @fstWriterSetAttrBegin(ptr noundef captures(address_is_null) %0, i32 noundef %1, i32 noundef %2, ptr noundef %3, i64 noundef %4) local_unnamed_addr #14 {
  %6 = alloca [10 x i8], align 1
  %.not = icmp eq ptr %0, null
  br i1 %.not, label %46, label %7

7:                                                ; preds = %5
  %8 = getelementptr inbounds nuw i8, ptr %0, i64 8
  %9 = load ptr, ptr %8, align 8, !tbaa !27
  %10 = tail call i32 @fputc(i32 noundef 252, ptr noundef %9)
  %11 = icmp sgt i32 %1, 3
  %spec.select = select i1 %11, i32 8, i32 %2
  %spec.select36 = select i1 %11, i32 0, i32 %1
  %12 = load ptr, ptr %8, align 8, !tbaa !27
  %13 = tail call i32 @fputc(i32 noundef %spec.select36, ptr noundef %12)
  switch i32 %1, label %17 [
    i32 1, label %14
    i32 2, label %15
    i32 3, label %16
  ]

14:                                               ; preds = %7
  %or.cond = icmp ugt i32 %2, 3
  %spec.store.select = select i1 %or.cond, i32 0, i32 %2
  br label %17

15:                                               ; preds = %7
  %or.cond3 = icmp ugt i32 %2, 15
  %spec.store.select6 = select i1 %or.cond3, i32 0, i32 %2
  br label %17

16:                                               ; preds = %7
  %or.cond5 = icmp ugt i32 %2, 3
  %spec.store.select7 = select i1 %or.cond5, i32 0, i32 %2
  br label %17

17:                                               ; preds = %16, %15, %14, %7
  %.1 = phi i32 [ %spec.select, %7 ], [ %spec.store.select7, %16 ], [ %spec.store.select6, %15 ], [ %spec.store.select, %14 ]
  %18 = load ptr, ptr %8, align 8, !tbaa !27
  %19 = tail call i32 @fputc(i32 noundef %.1, ptr noundef %18)
  %20 = load ptr, ptr %8, align 8, !tbaa !27
  %.not35 = icmp eq ptr %3, null
  %21 = select i1 %.not35, ptr @.str.11, ptr %3
  %22 = tail call i32 (ptr, ptr, ...) @fprintf(ptr noundef %20, ptr noundef nonnull @.str.13, ptr noundef nonnull %21, i32 noundef 0) #39
  br i1 %.not35, label %._crit_edge, label %23

._crit_edge:                                      ; preds = %17
  %.phi.trans.insert = getelementptr inbounds nuw i8, ptr %0, i64 56
  %.pre = load i64, ptr %.phi.trans.insert, align 8, !tbaa !65
  br label %28

23:                                               ; preds = %17
  %24 = tail call i64 @strlen(ptr noundef nonnull dereferenceable(1) %3) #40
  %25 = getelementptr inbounds nuw i8, ptr %0, i64 56
  %26 = load i64, ptr %25, align 8, !tbaa !65
  %27 = add i64 %26, %24
  br label %28

28:                                               ; preds = %._crit_edge, %23
  %29 = phi i64 [ %.pre, %._crit_edge ], [ %27, %23 ]
  %30 = getelementptr inbounds nuw i8, ptr %0, i64 56
  %31 = add nsw i64 %29, 4
  store i64 %31, ptr %30, align 8, !tbaa !65
  %32 = load ptr, ptr %8, align 8, !tbaa !27
  call void @llvm.lifetime.start.p0(i64 10, ptr nonnull %6) #39
  %.not11.i = icmp ult i64 %4, 128
  br i1 %.not11.i, label %_ZL15fstWriterVarintP8_IO_FILEm.exit, label %.lr.ph.i

.lr.ph.i:                                         ; preds = %28, %.lr.ph.i
  %.013.i = phi i64 [ %33, %.lr.ph.i ], [ %4, %28 ]
  %.0912.i = phi ptr [ %36, %.lr.ph.i ], [ %6, %28 ]
  %33 = lshr i64 %.013.i, 7
  %34 = trunc i64 %.013.i to i8
  %35 = or i8 %34, -128
  %36 = getelementptr inbounds nuw i8, ptr %.0912.i, i64 1
  store i8 %35, ptr %.0912.i, align 1, !tbaa !6
  %.not.i = icmp ult i64 %.013.i, 16384
  br i1 %.not.i, label %_ZL15fstWriterVarintP8_IO_FILEm.exit, label %.lr.ph.i, !llvm.loop !58

_ZL15fstWriterVarintP8_IO_FILEm.exit:             ; preds = %.lr.ph.i, %28
  %.09.lcssa.i = phi ptr [ %6, %28 ], [ %36, %.lr.ph.i ]
  %.0.lcssa.i = phi i64 [ %4, %28 ], [ %33, %.lr.ph.i ]
  %37 = trunc nuw i64 %.0.lcssa.i to i8
  %38 = getelementptr inbounds nuw i8, ptr %.09.lcssa.i, i64 1
  store i8 %37, ptr %.09.lcssa.i, align 1, !tbaa !6
  %39 = ptrtoint ptr %38 to i64
  %40 = ptrtoint ptr %6 to i64
  %41 = sub i64 %39, %40
  %sext.i = shl i64 %41, 32
  %42 = ashr exact i64 %sext.i, 32
  %43 = call noundef i64 @fwrite(ptr noundef nonnull %6, i64 noundef %42, i64 noundef 1, ptr noundef %32)
  call void @llvm.lifetime.end.p0(i64 10, ptr nonnull %6) #39
  %44 = load i64, ptr %30, align 8, !tbaa !65
  %45 = add nsw i64 %44, %42
  store i64 %45, ptr %30, align 8, !tbaa !65
  br label %46

46:                                               ; preds = %_ZL15fstWriterVarintP8_IO_FILEm.exit, %5
  ret void
}